; Function Attrs: mustprogress nofree norecurse nosync nounwind willreturn memory(readwrite, inaccessiblemem: none) uwtable
define internal void @_ZN5faiss12IndexIVFFlat8add_coreElPKfPKlS4_Pv.omp_outlined.omp.reduction.reduction_func(ptr noundef readonly captures(none) %0, ptr noundef readonly captures(none) %1) #13 {
  %3 = load ptr, ptr %1, align 8
  %4 = load ptr, ptr %0, align 8
  %5 = load i64, ptr %4, align 8, !tbaa !36
  %6 = load i64, ptr %3, align 8, !tbaa !36
  %7 = add nsw i64 %6, %5
  store i64 %7, ptr %4, align 8, !tbaa !36
  ret void
}